; Function Attrs: mustprogress nofree norecurse nosync nounwind willreturn memory(read, inaccessiblemem: none) uwtable
define hidden noundef i32 @_ZNK5array6solver21get_lambda_equiv_sizeERKNS0_8var_dataE(ptr noundef nonnull readnone align 8 captures(none) dereferenceable(536) %0, ptr noundef nonnull readonly align 8 captures(none) dereferenceable(32) %1) local_unnamed_addr #8 align 2 {
  %3 = getelementptr inbounds nuw i8, ptr %1, i64 24
  %4 = load ptr, ptr %3, align 8, !tbaa !135
  %5 = icmp eq ptr %4, null
  br i1 %5, label %_ZNK6vectorIPN3euf5enodeELb0EjE4sizeEv.exit, label %6

6:                                                ; preds = %2
  %7 = getelementptr inbounds i8, ptr %4, i64 -4
  %8 = load i32, ptr %7, align 4, !tbaa !140
  br label %_ZNK6vectorIPN3euf5enodeELb0EjE4sizeEv.exit

_ZNK6vectorIPN3euf5enodeELb0EjE4sizeEv.exit:      ; preds = %2, %6
  %.0.i = phi i32 [ %8, %6 ], [ 0, %2 ]
  %9 = getelementptr inbounds nuw i8, ptr %1, i64 8
  %10 = load ptr, ptr %9, align 8, !tbaa !135
  %11 = icmp eq ptr %10, null
  br i1 %11, label %_ZNK6vectorIPN3euf5enodeELb0EjE4sizeEv.exit3, label %12

12:                                               ; preds = %_ZNK6vectorIPN3euf5enodeELb0EjE4sizeEv.exit
  %13 = getelementptr inbounds i8, ptr %10, i64 -4
  %14 = load i32, ptr %13, align 4, !tbaa !140
  %15 = shl i32 %14, 1
  br label %_ZNK6vectorIPN3euf5enodeELb0EjE4sizeEv.exit3

_ZNK6vectorIPN3euf5enodeELb0EjE4sizeEv.exit3:     ; preds = %_ZNK6vectorIPN3euf5enodeELb0EjE4sizeEv.exit, %12
  %.0.i2 = phi i32 [ %15, %12 ], [ 0, %_ZNK6vectorIPN3euf5enodeELb0EjE4sizeEv.exit ]
  %16 = add i32 %.0.i2, %.0.i
  ret i32 %16
}